target datalayout = "e-m:e-p270:32:32-p271:32:32-p272:64:64-i64:64-i128:128-f80:128-n8:16:32:64-S128"
target triple = "x86_64-pc-linux-gnu"

%struct.ResFile = type { ptr, ptr, ptr, i32, i32, ptr, i32, i32 }
%struct.SResource = type { ptr, i8, i8, i32, i32, i32, i32, i32, ptr, %struct.UString }
%struct.UString = type { ptr, i32, i32 }
%struct.SRBRoot = type { ptr, ptr, i32, i32, i8, i8, i8, ptr, ptr, i32, i32, i32, i32, i32, %"class.icu_77::UnicodeString", i32, ptr, i32, i32, i32, ptr }
%"class.icu_77::UnicodeString" = type { %"class.icu_77::Replaceable", %"union.icu_77::UnicodeString::StackBufferOrFields" }
%"class.icu_77::Replaceable" = type { %"class.icu_77::UObject" }
%"class.icu_77::UObject" = type { ptr }
%"union.icu_77::UnicodeString::StackBufferOrFields" = type { %struct.anon.0, [32 x i8] }
%struct.anon.0 = type { i16, i32, i32, ptr }

; Function Attrs: mustprogress nounwind uwtable
define dso_local noundef ptr @_ZNK7SRBRoot12getKeyStringEi(ptr noundef nonnull align 8 dereferenceable(176) %0, i32 noundef %1) #4 align 2 {
  %3 = alloca ptr, align 8
  %4 = alloca ptr, align 8
  %5 = alloca i32, align 4
  store ptr %0, ptr %4, align 8, !tbaa !39
  store i32 %1, ptr %5, align 4, !tbaa !23
  %6 = load ptr, ptr %4, align 8
  %7 = load i32, ptr %5, align 4, !tbaa !23
  %8 = icmp slt i32 %7, 0
  br i1 %8, label %9, label %18

9:                                                ; preds = %2
  %10 = getelementptr inbounds nuw %struct.SRBRoot, ptr %6, i32 0, i32 16
  %11 = load ptr, ptr %10, align 8, !tbaa !119
  %12 = getelementptr inbounds nuw %struct.ResFile, ptr %11, i32 0, i32 2
  %13 = load ptr, ptr %12, align 8, !tbaa !16
  %14 = load i32, ptr %5, align 4, !tbaa !23
  %15 = and i32 %14, 2147483647
  %16 = sext i32 %15 to i64
  %17 = getelementptr inbounds i8, ptr %13, i64 %16
  store ptr %17, ptr %3, align 8
  br label %24

18:                                               ; preds = %2
  %19 = getelementptr inbounds nuw %struct.SRBRoot, ptr %6, i32 0, i32 7
  %20 = load ptr, ptr %19, align 8, !tbaa !64
  %21 = load i32, ptr %5, align 4, !tbaa !23
  %22 = sext i32 %21 to i64
  %23 = getelementptr inbounds i8, ptr %20, i64 %22
  store ptr %23, ptr %3, align 8
  br label %24

24:                                               ; preds = %18, %9
  %25 = load ptr, ptr %3, align 8
  ret ptr %25
}

; Function Attrs: mustprogress nounwind uwtable
define dso_local noundef ptr @_ZNK9SResource12getKeyStringEPK7SRBRoot(ptr noundef nonnull align 8 dereferenceable(56) %0, ptr noundef %1) #4 align 2 {
  %3 = alloca ptr, align 8
  %4 = alloca ptr, align 8
  %5 = alloca ptr, align 8
  store ptr %0, ptr %4, align 8, !tbaa !24
  store ptr %1, ptr %5, align 8, !tbaa !39
  %6 = load ptr, ptr %4, align 8
  %7 = getelementptr inbounds nuw %struct.SResource, ptr %6, i32 0, i32 5
  %8 = load i32, ptr %7, align 4, !tbaa !35
  %9 = icmp eq i32 %8, -1
  br i1 %9, label %10, label %11

10:                                               ; preds = %2
  store ptr null, ptr %3, align 8
  br label %16

11:                                               ; preds = %2
  %12 = load ptr, ptr %5, align 8, !tbaa !39
  %13 = getelementptr inbounds nuw %struct.SResource, ptr %6, i32 0, i32 5
  %14 = load i32, ptr %13, align 4, !tbaa !35
  %15 = call noundef ptr @_ZNK7SRBRoot12getKeyStringEi(ptr noundef nonnull align 8 dereferenceable(176) %12, i32 noundef %14)
  store ptr %15, ptr %3, align 8
  br label %16

16:                                               ; preds = %11, %10
  %17 = load ptr, ptr %3, align 8
  ret ptr %17
}