; Function Attrs: mustprogress nofree norecurse nosync nounwind willreturn memory(read, inaccessiblemem: none) uwtable
define dso_local noundef ptr @_ZNK9SResource12getKeyStringEPK7SRBRoot(ptr noundef nonnull readonly align 8 captures(none) dereferenceable(56) %0, ptr noundef readonly captures(none) %1) local_unnamed_addr #19 align 2 {
  %3 = getelementptr inbounds nuw i8, ptr %0, i64 20
  %4 = load i32, ptr %3, align 4, !tbaa !36
  %5 = icmp eq i32 %4, -1
  br i1 %5, label %17, label %6

6:                                                ; preds = %2
  %7 = icmp slt i32 %4, 0
  br i1 %7, label %8, label %13

8:                                                ; preds = %6
  %9 = getelementptr inbounds nuw i8, ptr %1, i64 144
  %10 = load ptr, ptr %9, align 8, !tbaa !78
  %11 = getelementptr inbounds nuw i8, ptr %10, i64 16
  %12 = and i32 %4, 2147483647
  br label %_ZNK7SRBRoot12getKeyStringEi.exit

13:                                               ; preds = %6
  %14 = getelementptr inbounds nuw i8, ptr %1, i64 32
  br label %_ZNK7SRBRoot12getKeyStringEi.exit

_ZNK7SRBRoot12getKeyStringEi.exit:                ; preds = %8, %13
  %.sink6.i = phi i32 [ %4, %13 ], [ %12, %8 ]
  %.sink.in.i = phi ptr [ %14, %13 ], [ %11, %8 ]
  %.sink.i = load ptr, ptr %.sink.in.i, align 8, !tbaa !141
  %15 = zext nneg i32 %.sink6.i to i64
  %16 = getelementptr inbounds nuw i8, ptr %.sink.i, i64 %15
  br label %17

17:                                               ; preds = %2, %_ZNK7SRBRoot12getKeyStringEi.exit
  %.0 = phi ptr [ %16, %_ZNK7SRBRoot12getKeyStringEi.exit ], [ null, %2 ]
  ret ptr %.0
}